target datalayout = "e-m:e-p270:32:32-p271:32:32-p272:64:64-i64:64-i128:128-f80:128-n8:16:32:64-S128"
target triple = "x86_64-pc-linux-gnu"

@hf_kafka_offset = internal global i32 0, align 4
@hf_kafka_error = internal global i32 0, align 4
@hf_kafka_partition_id = internal global i32 0, align 4
@hf_kafka_leader_epoch = internal global i32 0, align 4
@ett_kafka_partition = internal global i32 0, align 4
@.str.628 = private unnamed_addr constant [11 x i8] c"Unknown %d\00", align 1
@.str.643 = private unnamed_addr constant [10 x i8] c"Partition\00", align 1
@.str.644 = private unnamed_addr constant [9 x i8] c" (ID=%u)\00", align 1
@.str.769 = private unnamed_addr constant [19 x i8] c" (ID=%u, Error=%s)\00", align 1

; Function Attrs: null_pointer_is_valid sspstrong uwtable
define internal ptr @kafka_error_to_str(i16 noundef signext %0) #0 {
  %2 = alloca i16, align 2
  store i16 %0, ptr %2, align 2
  %3 = load i16, ptr %2, align 2
  %4 = sext i16 %3 to i32
  %5 = call ptr @val_to_str(i32 noundef %4, ptr noundef @kafka_errors, ptr noundef @.str.628)
  ret ptr %5
}

; Function Attrs: null_pointer_is_valid sspstrong uwtable
define internal i32 @dissect_kafka_offset_for_leader_epoch_response_topic_partition(ptr noundef %0, ptr noundef %1, ptr noundef %2, i32 noundef %3, i16 noundef signext %4) #0 {
  %6 = alloca ptr, align 8
  %7 = alloca ptr, align 8
  %8 = alloca ptr, align 8
  %9 = alloca i32, align 4
  %10 = alloca i16, align 2
  %11 = alloca i32, align 4
  %12 = alloca i16, align 2
  %13 = alloca ptr, align 8
  %14 = alloca ptr, align 8
  store ptr %0, ptr %6, align 8
  store ptr %1, ptr %7, align 8
  store ptr %2, ptr %8, align 8
  store i32 %3, ptr %9, align 4
  store i16 %4, ptr %10, align 2
  call void @llvm.lifetime.start.p0(i64 4, ptr %11) #12
  call void @llvm.lifetime.start.p0(i64 2, ptr %12) #12
  call void @llvm.lifetime.start.p0(i64 8, ptr %13) #12
  call void @llvm.lifetime.start.p0(i64 8, ptr %14) #12
  %15 = load ptr, ptr %8, align 8
  %16 = load ptr, ptr %6, align 8
  %17 = load i32, ptr %9, align 4
  %18 = load i32, ptr @ett_kafka_partition, align 4
  %19 = call ptr @proto_tree_add_subtree(ptr noundef %15, ptr noundef %16, i32 noundef %17, i32 noundef -1, i32 noundef %18, ptr noundef %13, ptr noundef @.str.643)
  store ptr %19, ptr %14, align 8
  %20 = load ptr, ptr %6, align 8
  %21 = load i32, ptr %9, align 4
  %22 = call zeroext i16 @tvb_get_ntohs(ptr noundef %20, i32 noundef %21)
  store i16 %22, ptr %12, align 2
  %23 = load ptr, ptr %14, align 8
  %24 = load i32, ptr @hf_kafka_error, align 4
  %25 = load ptr, ptr %6, align 8
  %26 = load i32, ptr %9, align 4
  %27 = call ptr @proto_tree_add_item(ptr noundef %23, i32 noundef %24, ptr noundef %25, i32 noundef %26, i32 noundef 2, i32 noundef 0)
  %28 = load i32, ptr %9, align 4
  %29 = add i32 %28, 2
  store i32 %29, ptr %9, align 4
  %30 = load ptr, ptr %6, align 8
  %31 = load i32, ptr %9, align 4
  %32 = call i32 @tvb_get_ntohl(ptr noundef %30, i32 noundef %31)
  store i32 %32, ptr %11, align 4
  %33 = load ptr, ptr %14, align 8
  %34 = load i32, ptr @hf_kafka_partition_id, align 4
  %35 = load ptr, ptr %6, align 8
  %36 = load i32, ptr %9, align 4
  %37 = call ptr @proto_tree_add_item(ptr noundef %33, i32 noundef %34, ptr noundef %35, i32 noundef %36, i32 noundef 4, i32 noundef 0)
  %38 = load i32, ptr %9, align 4
  %39 = add i32 %38, 4
  store i32 %39, ptr %9, align 4
  %40 = load i16, ptr %10, align 2
  %41 = sext i16 %40 to i32
  %42 = icmp sge i32 %41, 1
  br i1 %42, label %43, label %51

43:                                               ; preds = %5
  %44 = load ptr, ptr %14, align 8
  %45 = load i32, ptr @hf_kafka_leader_epoch, align 4
  %46 = load ptr, ptr %6, align 8
  %47 = load i32, ptr %9, align 4
  %48 = call ptr @proto_tree_add_item(ptr noundef %44, i32 noundef %45, ptr noundef %46, i32 noundef %47, i32 noundef 4, i32 noundef 0)
  %49 = load i32, ptr %9, align 4
  %50 = add i32 %49, 4
  store i32 %50, ptr %9, align 4
  br label %51

51:                                               ; preds = %43, %5
  %52 = load ptr, ptr %14, align 8
  %53 = load i32, ptr @hf_kafka_offset, align 4
  %54 = load ptr, ptr %6, align 8
  %55 = load i32, ptr %9, align 4
  %56 = call ptr @proto_tree_add_item(ptr noundef %52, i32 noundef %53, ptr noundef %54, i32 noundef %55, i32 noundef 8, i32 noundef 0)
  %57 = load i32, ptr %9, align 4
  %58 = add i32 %57, 8
  store i32 %58, ptr %9, align 4
  %59 = load ptr, ptr %13, align 8
  %60 = load ptr, ptr %6, align 8
  %61 = load i32, ptr %9, align 4
  call void @proto_item_set_end(ptr noundef %59, ptr noundef %60, i32 noundef %61)
  %62 = load i16, ptr %12, align 2
  %63 = sext i16 %62 to i32
  %64 = icmp eq i32 %63, 0
  br i1 %64, label %65, label %68

65:                                               ; preds = %51
  %66 = load ptr, ptr %13, align 8
  %67 = load i32, ptr %11, align 4
  call void (ptr, ptr, ...) @proto_item_append_text(ptr noundef %66, ptr noundef @.str.644, i32 noundef %67)
  br label %73

68:                                               ; preds = %51
  %69 = load ptr, ptr %13, align 8
  %70 = load i32, ptr %11, align 4
  %71 = load i16, ptr %12, align 2
  %72 = call ptr @kafka_error_to_str(i16 noundef signext %71)
  call void (ptr, ptr, ...) @proto_item_append_text(ptr noundef %69, ptr noundef @.str.769, i32 noundef %70, ptr noundef %72)
  br label %73

73:                                               ; preds = %68, %65
  %74 = load i32, ptr %9, align 4
  call void @llvm.lifetime.end.p0(i64 8, ptr %14) #12
  call void @llvm.lifetime.end.p0(i64 8, ptr %13) #12
  call void @llvm.lifetime.end.p0(i64 2, ptr %12) #12
  call void @llvm.lifetime.end.p0(i64 4, ptr %11) #12
  ret i32 %74
}