; Function Attrs: null_pointer_is_valid sspstrong uwtable
define internal noundef i32 @dissect_kafka_offset_for_leader_epoch_response_topic_partition(ptr noundef %0, ptr readnone captures(none) %1, ptr noundef %2, i32 noundef %3, i16 noundef signext %4) #0 {
  %6 = alloca ptr, align 8
  call void @llvm.lifetime.start.p0(i64 8, ptr nonnull %6) #9
  %7 = load i32, ptr @ett_kafka_partition, align 4
  %8 = call ptr @proto_tree_add_subtree(ptr noundef %2, ptr noundef %0, i32 noundef %3, i32 noundef -1, i32 noundef %7, ptr noundef nonnull %6, ptr noundef nonnull @.str.643)
  %9 = call zeroext i16 @tvb_get_ntohs(ptr noundef %0, i32 noundef %3)
  %10 = load i32, ptr @hf_kafka_error, align 4
  %11 = call ptr @proto_tree_add_item(ptr noundef %8, i32 noundef %10, ptr noundef %0, i32 noundef %3, i32 noundef 2, i32 noundef 0)
  %12 = add i32 %3, 2
  %13 = call i32 @tvb_get_ntohl(ptr noundef %0, i32 noundef %12)
  %14 = load i32, ptr @hf_kafka_partition_id, align 4
  %15 = call ptr @proto_tree_add_item(ptr noundef %8, i32 noundef %14, ptr noundef %0, i32 noundef %12, i32 noundef 4, i32 noundef 0)
  %16 = add i32 %3, 6
  %17 = icmp sgt i16 %4, 0
  br i1 %17, label %18, label %22

18:                                               ; preds = %5
  %19 = load i32, ptr @hf_kafka_leader_epoch, align 4
  %20 = call ptr @proto_tree_add_item(ptr noundef %8, i32 noundef %19, ptr noundef %0, i32 noundef %16, i32 noundef 4, i32 noundef 0)
  %21 = add i32 %3, 10
  br label %22

22:                                               ; preds = %18, %5
  %.0 = phi i32 [ %21, %18 ], [ %16, %5 ]
  %23 = load i32, ptr @hf_kafka_offset, align 4
  %24 = call ptr @proto_tree_add_item(ptr noundef %8, i32 noundef %23, ptr noundef %0, i32 noundef %.0, i32 noundef 8, i32 noundef 0)
  %25 = add i32 %.0, 8
  %26 = load ptr, ptr %6, align 8
  call void @proto_item_set_end(ptr noundef %26, ptr noundef %0, i32 noundef %25)
  %27 = icmp eq i16 %9, 0
  %28 = load ptr, ptr %6, align 8
  br i1 %27, label %29, label %30

29:                                               ; preds = %22
  call void (ptr, ptr, ...) @proto_item_append_text(ptr noundef %28, ptr noundef nonnull @.str.644, i32 noundef %13)
  br label %33

30:                                               ; preds = %22
  %31 = sext i16 %9 to i32
  %32 = call ptr @val_to_str(i32 noundef %31, ptr noundef nonnull @kafka_errors, ptr noundef nonnull @.str.628)
  call void (ptr, ptr, ...) @proto_item_append_text(ptr noundef %28, ptr noundef nonnull @.str.769, i32 noundef %13, ptr noundef %32)
  br label %33

33:                                               ; preds = %30, %29
  call void @llvm.lifetime.end.p0(i64 8, ptr nonnull %6) #9
  ret i32 %25
}